; ModuleID = 'source-C-CXX/60/1403.cpp'
source_filename = "source-C-CXX/60/1403.cpp"
target datalayout = "e-m:e-p270:32:32-p271:32:32-p272:64:64-i64:64-f80:128-n8:16:32:64-S128"
target triple = "x86_64-pc-linux-gnu"

%"class.std::ios_base::Init" = type { i8 }
%"class.std::basic_istream" = type { i32 (...)**, i64, %"class.std::basic_ios" }
%"class.std::basic_ios" = type { %"class.std::ios_base", %"class.std::basic_ostream"*, i8, i8, %"class.std::basic_streambuf"*, %"class.std::ctype"*, %"class.std::num_put"*, %"class.std::num_get"* }
%"class.std::ios_base" = type { i32 (...)**, i64, i64, i32, i32, i32, %"struct.std::ios_base::_Callback_list"*, %"struct.std::ios_base::_Words", [8 x %"struct.std::ios_base::_Words"], i32, %"struct.std::ios_base::_Words"*, %"class.std::locale" }
%"struct.std::ios_base::_Callback_list" = type { %"struct.std::ios_base::_Callback_list"*, void (i32, %"class.std::ios_base"*, i32)*, i32, i32 }
%"struct.std::ios_base::_Words" = type { i8*, i64 }
%"class.std::locale" = type { %"class.std::locale::_Impl"* }
%"class.std::locale::_Impl" = type { i32, %"class.std::locale::facet"**, i64, %"class.std::locale::facet"**, i8** }
%"class.std::locale::facet" = type <{ i32 (...)**, i32, [4 x i8] }>
%"class.std::basic_ostream" = type { i32 (...)**, %"class.std::basic_ios" }
%"class.std::basic_streambuf" = type { i32 (...)**, i8*, i8*, i8*, i8*, i8*, i8*, %"class.std::locale" }
%"class.std::ctype" = type <{ %"class.std::locale::facet.base", [4 x i8], %struct.__locale_struct*, i8, [7 x i8], i32*, i32*, i16*, i8, [256 x i8], [256 x i8], i8, [6 x i8] }>
%"class.std::locale::facet.base" = type <{ i32 (...)**, i32 }>
%struct.__locale_struct = type { [13 x %struct.__locale_data*], i16*, i32*, i32*, [13 x i8*] }
%struct.__locale_data = type opaque
%"class.std::num_put" = type { %"class.std::locale::facet.base", [4 x i8] }
%"class.std::num_get" = type { %"class.std::locale::facet.base", [4 x i8] }

@_ZStL8__ioinit = internal global %"class.std::ios_base::Init" zeroinitializer, align 1
@__dso_handle = external hidden global i8
@_ZSt3cin = external global %"class.std::basic_istream", align 8
@_ZSt4cout = external global %"class.std::basic_ostream", align 8
@llvm.global_ctors = appending global [1 x { i32, void ()*, i8* }] [{ i32, void ()*, i8* } { i32 65535, void ()* @_GLOBAL__sub_I_1403.cpp, i8* null }]

declare void @_ZNSt8ios_base4InitC1Ev(%"class.std::ios_base::Init"* nonnull align 1 dereferenceable(1)) unnamed_addr #0

; Function Attrs: nounwind
declare void @_ZNSt8ios_base4InitD1Ev(%"class.std::ios_base::Init"* nonnull align 1 dereferenceable(1)) unnamed_addr #1

; Function Attrs: nofree nounwind
declare i32 @__cxa_atexit(void (i8*)*, i8*, i8*) local_unnamed_addr #2

; Function Attrs: mustprogress norecurse sspstrong uwtable
define dso_local i32 @main() local_unnamed_addr #3 {
  %1 = alloca i32, align 4
  %2 = alloca i32, align 4
  %3 = bitcast i32* %1 to i8*
  call void @llvm.lifetime.start.p0i8(i64 4, i8* nonnull %3) #7
  %4 = bitcast i32* %2 to i8*
  call void @llvm.lifetime.start.p0i8(i64 4, i8* nonnull %4) #7
  %5 = call nonnull align 8 dereferenceable(16) %"class.std::basic_istream"* @_ZNSirsERi(%"class.std::basic_istream"* nonnull align 8 dereferenceable(16) @_ZSt3cin, i32* nonnull align 4 dereferenceable(4) %2)
  %6 = load i32, i32* %2, align 4, !tbaa !5
  %7 = icmp slt i32 %6, 1
  br i1 %7, label %133, label %8

8:                                                ; preds = %0, %129
  %9 = phi i32 [ %130, %129 ], [ 1, %0 ]
  %10 = call nonnull align 8 dereferenceable(16) %"class.std::basic_istream"* @_ZNSirsERi(%"class.std::basic_istream"* nonnull align 8 dereferenceable(16) @_ZSt3cin, i32* nonnull align 4 dereferenceable(4) %1)
  %11 = load i32, i32* %1, align 4, !tbaa !5
  %12 = icmp slt i32 %11, 3
  br i1 %12, label %57, label %13

13:                                               ; preds = %8
  %14 = add i32 %11, -3
  %15 = lshr i32 %14, 1
  %16 = add nuw i32 %15, 1
  %17 = and i32 %16, 7
  %18 = icmp ult i32 %14, 14
  br i1 %18, label %43, label %19

19:                                               ; preds = %13
  %20 = and i32 %16, -8
  br label %21

21:                                               ; preds = %21, %19
  %22 = phi i32 [ 1, %19 ], [ %40, %21 ]
  %23 = phi i32 [ 1, %19 ], [ %39, %21 ]
  %24 = phi i32 [ %20, %19 ], [ %41, %21 ]
  %25 = add nsw i32 %22, %23
  %26 = add nsw i32 %25, %22
  %27 = add nsw i32 %26, %25
  %28 = add nsw i32 %27, %26
  %29 = add nsw i32 %28, %27
  %30 = add nsw i32 %29, %28
  %31 = add nsw i32 %30, %29
  %32 = add nsw i32 %31, %30
  %33 = add nsw i32 %32, %31
  %34 = add nsw i32 %33, %32
  %35 = add nsw i32 %34, %33
  %36 = add nsw i32 %35, %34
  %37 = add nsw i32 %36, %35
  %38 = add nsw i32 %37, %36
  %39 = add nsw i32 %38, %37
  %40 = add nsw i32 %39, %38
  %41 = add i32 %24, -8
  %42 = icmp eq i32 %41, 0
  br i1 %42, label %43, label %21, !llvm.loop !9

43:                                               ; preds = %21, %13
  %44 = phi i32 [ undef, %13 ], [ %39, %21 ]
  %45 = phi i32 [ undef, %13 ], [ %40, %21 ]
  %46 = phi i32 [ 1, %13 ], [ %40, %21 ]
  %47 = phi i32 [ 1, %13 ], [ %39, %21 ]
  %48 = icmp eq i32 %17, 0
  br i1 %48, label %57, label %49

49:                                               ; preds = %43, %49
  %50 = phi i32 [ %54, %49 ], [ %46, %43 ]
  %51 = phi i32 [ %53, %49 ], [ %47, %43 ]
  %52 = phi i32 [ %55, %49 ], [ %17, %43 ]
  %53 = add nsw i32 %50, %51
  %54 = add nsw i32 %53, %50
  %55 = add i32 %52, -1
  %56 = icmp eq i32 %55, 0
  br i1 %56, label %57, label %49, !llvm.loop !11

57:                                               ; preds = %43, %49, %8
  %58 = phi i32 [ 1, %8 ], [ %44, %43 ], [ %53, %49 ]
  %59 = phi i32 [ 1, %8 ], [ %45, %43 ], [ %54, %49 ]
  %60 = srem i32 %11, 2
  %61 = icmp eq i32 %60, 1
  br i1 %61, label %62, label %94

62:                                               ; preds = %57
  %63 = call nonnull align 8 dereferenceable(8) %"class.std::basic_ostream"* @_ZNSolsEi(%"class.std::basic_ostream"* nonnull align 8 dereferenceable(8) @_ZSt4cout, i32 %58)
  %64 = bitcast %"class.std::basic_ostream"* %63 to i8**
  %65 = load i8*, i8** %64, align 8, !tbaa !13
  %66 = getelementptr i8, i8* %65, i64 -24
  %67 = bitcast i8* %66 to i64*
  %68 = load i64, i64* %67, align 8
  %69 = bitcast %"class.std::basic_ostream"* %63 to i8*
  %70 = add nsw i64 %68, 240
  %71 = getelementptr inbounds i8, i8* %69, i64 %70
  %72 = bitcast i8* %71 to %"class.std::ctype"**
  %73 = load %"class.std::ctype"*, %"class.std::ctype"** %72, align 8, !tbaa !15
  %74 = icmp eq %"class.std::ctype"* %73, null
  br i1 %74, label %75, label %76

75:                                               ; preds = %62
  call void @_ZSt16__throw_bad_castv() #8
  unreachable

76:                                               ; preds = %62
  %77 = getelementptr inbounds %"class.std::ctype", %"class.std::ctype"* %73, i64 0, i32 8
  %78 = load i8, i8* %77, align 8, !tbaa !19
  %79 = icmp eq i8 %78, 0
  br i1 %79, label %83, label %80

80:                                               ; preds = %76
  %81 = getelementptr inbounds %"class.std::ctype", %"class.std::ctype"* %73, i64 0, i32 9, i64 10
  %82 = load i8, i8* %81, align 1, !tbaa !21
  br label %89

83:                                               ; preds = %76
  call void @_ZNKSt5ctypeIcE13_M_widen_initEv(%"class.std::ctype"* nonnull align 8 dereferenceable(570) %73)
  %84 = bitcast %"class.std::ctype"* %73 to i8 (%"class.std::ctype"*, i8)***
  %85 = load i8 (%"class.std::ctype"*, i8)**, i8 (%"class.std::ctype"*, i8)*** %84, align 8, !tbaa !13
  %86 = getelementptr inbounds i8 (%"class.std::ctype"*, i8)*, i8 (%"class.std::ctype"*, i8)** %85, i64 6
  %87 = load i8 (%"class.std::ctype"*, i8)*, i8 (%"class.std::ctype"*, i8)** %86, align 8
  %88 = call signext i8 %87(%"class.std::ctype"* nonnull align 8 dereferenceable(570) %73, i8 signext 10)
  br label %89

89:                                               ; preds = %80, %83
  %90 = phi i8 [ %82, %80 ], [ %88, %83 ]
  %91 = call nonnull align 8 dereferenceable(8) %"class.std::basic_ostream"* @_ZNSo3putEc(%"class.std::basic_ostream"* nonnull align 8 dereferenceable(8) %63, i8 signext %90)
  %92 = call nonnull align 8 dereferenceable(8) %"class.std::basic_ostream"* @_ZNSo5flushEv(%"class.std::basic_ostream"* nonnull align 8 dereferenceable(8) %91)
  %93 = load i32, i32* %1, align 4, !tbaa !5
  br label %94

94:                                               ; preds = %89, %57
  %95 = phi i32 [ %93, %89 ], [ %11, %57 ]
  %96 = and i32 %95, 1
  %97 = icmp eq i32 %96, 0
  br i1 %97, label %98, label %129

98:                                               ; preds = %94
  %99 = call nonnull align 8 dereferenceable(8) %"class.std::basic_ostream"* @_ZNSolsEi(%"class.std::basic_ostream"* nonnull align 8 dereferenceable(8) @_ZSt4cout, i32 %59)
  %100 = bitcast %"class.std::basic_ostream"* %99 to i8**
  %101 = load i8*, i8** %100, align 8, !tbaa !13
  %102 = getelementptr i8, i8* %101, i64 -24
  %103 = bitcast i8* %102 to i64*
  %104 = load i64, i64* %103, align 8
  %105 = bitcast %"class.std::basic_ostream"* %99 to i8*
  %106 = add nsw i64 %104, 240
  %107 = getelementptr inbounds i8, i8* %105, i64 %106
  %108 = bitcast i8* %107 to %"class.std::ctype"**
  %109 = load %"class.std::ctype"*, %"class.std::ctype"** %108, align 8, !tbaa !15
  %110 = icmp eq %"class.std::ctype"* %109, null
  br i1 %110, label %111, label %112

111:                                              ; preds = %98
  call void @_ZSt16__throw_bad_castv() #8
  unreachable

112:                                              ; preds = %98
  %113 = getelementptr inbounds %"class.std::ctype", %"class.std::ctype"* %109, i64 0, i32 8
  %114 = load i8, i8* %113, align 8, !tbaa !19
  %115 = icmp eq i8 %114, 0
  br i1 %115, label %119, label %116

116:                                              ; preds = %112
  %117 = getelementptr inbounds %"class.std::ctype", %"class.std::ctype"* %109, i64 0, i32 9, i64 10
  %118 = load i8, i8* %117, align 1, !tbaa !21
  br label %125

119:                                              ; preds = %112
  call void @_ZNKSt5ctypeIcE13_M_widen_initEv(%"class.std::ctype"* nonnull align 8 dereferenceable(570) %109)
  %120 = bitcast %"class.std::ctype"* %109 to i8 (%"class.std::ctype"*, i8)***
  %121 = load i8 (%"class.std::ctype"*, i8)**, i8 (%"class.std::ctype"*, i8)*** %120, align 8, !tbaa !13
  %122 = getelementptr inbounds i8 (%"class.std::ctype"*, i8)*, i8 (%"class.std::ctype"*, i8)** %121, i64 6
  %123 = load i8 (%"class.std::ctype"*, i8)*, i8 (%"class.std::ctype"*, i8)** %122, align 8
  %124 = call signext i8 %123(%"class.std::ctype"* nonnull align 8 dereferenceable(570) %109, i8 signext 10)
  br label %125

125:                                              ; preds = %116, %119
  %126 = phi i8 [ %118, %116 ], [ %124, %119 ]
  %127 = call nonnull align 8 dereferenceable(8) %"class.std::basic_ostream"* @_ZNSo3putEc(%"class.std::basic_ostream"* nonnull align 8 dereferenceable(8) %99, i8 signext %126)
  %128 = call nonnull align 8 dereferenceable(8) %"class.std::basic_ostream"* @_ZNSo5flushEv(%"class.std::basic_ostream"* nonnull align 8 dereferenceable(8) %127)
  br label %129

129:                                              ; preds = %94, %125
  %130 = add nuw nsw i32 %9, 1
  %131 = load i32, i32* %2, align 4, !tbaa !5
  %132 = icmp slt i32 %9, %131
  br i1 %132, label %8, label %133, !llvm.loop !22

133:                                              ; preds = %129, %0
  call void @llvm.lifetime.end.p0i8(i64 4, i8* nonnull %4) #7
  call void @llvm.lifetime.end.p0i8(i64 4, i8* nonnull %3) #7
  ret i32 0
}

; Function Attrs: argmemonly mustprogress nofree nosync nounwind willreturn
declare void @llvm.lifetime.start.p0i8(i64 immarg, i8* nocapture) #4

declare nonnull align 8 dereferenceable(16) %"class.std::basic_istream"* @_ZNSirsERi(%"class.std::basic_istream"* nonnull align 8 dereferenceable(16), i32* nonnull align 4 dereferenceable(4)) local_unnamed_addr #0

declare nonnull align 8 dereferenceable(8) %"class.std::basic_ostream"* @_ZNSolsEi(%"class.std::basic_ostream"* nonnull align 8 dereferenceable(8), i32) local_unnamed_addr #0

; Function Attrs: argmemonly mustprogress nofree nosync nounwind willreturn
declare void @llvm.lifetime.end.p0i8(i64 immarg, i8* nocapture) #4

declare nonnull align 8 dereferenceable(8) %"class.std::basic_ostream"* @_ZNSo3putEc(%"class.std::basic_ostream"* nonnull align 8 dereferenceable(8), i8 signext) local_unnamed_addr #0

declare nonnull align 8 dereferenceable(8) %"class.std::basic_ostream"* @_ZNSo5flushEv(%"class.std::basic_ostream"* nonnull align 8 dereferenceable(8)) local_unnamed_addr #0

; Function Attrs: noreturn
declare void @_ZSt16__throw_bad_castv() local_unnamed_addr #5

declare void @_ZNKSt5ctypeIcE13_M_widen_initEv(%"class.std::ctype"* nonnull align 8 dereferenceable(570)) local_unnamed_addr #0

; Function Attrs: sspstrong uwtable
define internal void @_GLOBAL__sub_I_1403.cpp() #6 section ".text.startup" {
  tail call void @_ZNSt8ios_base4InitC1Ev(%"class.std::ios_base::Init"* nonnull align 1 dereferenceable(1) @_ZStL8__ioinit)
  %1 = tail call i32 @__cxa_atexit(void (i8*)* bitcast (void (%"class.std::ios_base::Init"*)* @_ZNSt8ios_base4InitD1Ev to void (i8*)*), i8* getelementptr inbounds (%"class.std::ios_base::Init", %"class.std::ios_base::Init"* @_ZStL8__ioinit, i64 0, i32 0), i8* nonnull @__dso_handle) #7
  ret void
}


!llvm.module.flags = !{!0, !1, !2, !3}
!llvm.ident = !{!4}

!0 = !{i32 1, !"wchar_size", i32 4}
!1 = !{i32 7, !"PIC Level", i32 2}
!2 = !{i32 7, !"PIE Level", i32 2}
!3 = !{i32 7, !"uwtable", i32 1}
!4 = !{!"clang version 13.0.0"}
!5 = !{!6, !6, i64 0}
!6 = !{!"int", !7, i64 0}
!7 = !{!"omnipotent char", !8, i64 0}
!8 = !{!"Simple C++ TBAA"}
!9 = distinct !{!9, !10}
!10 = !{!"llvm.loop.mustprogress"}
!11 = distinct !{!11, !12}
!12 = !{!"llvm.loop.unroll.disable"}
!13 = !{!14, !14, i64 0}
!14 = !{!"vtable pointer", !8, i64 0}
!15 = !{!16, !17, i64 240}
!16 = !{!"_ZTSSt9basic_iosIcSt11char_traitsIcEE", !17, i64 216, !7, i64 224, !18, i64 225, !17, i64 232, !17, i64 240, !17, i64 248, !17, i64 256}
!17 = !{!"any pointer", !7, i64 0}
!18 = !{!"bool", !7, i64 0}
!19 = !{!20, !7, i64 56}
!20 = !{!"_ZTSSt5ctypeIcE", !17, i64 16, !18, i64 24, !17, i64 32, !17, i64 40, !17, i64 48, !7, i64 56, !7, i64 57, !7, i64 313, !7, i64 569}
!21 = !{!7, !7, i64 0}
!22 = distinct !{!22, !10}
